; Function Attrs: mustprogress nofree norecurse nosync nounwind willreturn memory(write, argmem: readwrite, inaccessiblemem: none) uwtable
define void @_ZN8proxygen11SessionPool21detachPartiallyFilledEPNS_13SessionHolderE(ptr nocapture noundef nonnull align 8 dereferenceable(136) %this, ptr nocapture noundef %sess) unnamed_addr #11 align 2 personality ptr @__gxx_personality_v0 {
entry:
  %unfilledSessionList_ = getelementptr inbounds i8, ptr %this, i64 64
  %memptr.offset.i.i = getelementptr inbounds i8, ptr %sess, i64 8
  %0 = load ptr, ptr %memptr.offset.i.i, align 8, !noalias !13
  %prev_.i5.i.i = getelementptr inbounds i8, ptr %sess, i64 16
  %1 = load ptr, ptr %prev_.i5.i.i, align 8, !noalias !13
  store ptr %0, ptr %1, align 8, !noalias !13
  %prev_.i.i.i = getelementptr inbounds i8, ptr %0, i64 8
  store ptr %1, ptr %prev_.i.i.i, align 8, !noalias !13
  %2 = load i64, ptr %unfilledSessionList_, align 8, !noalias !13
  %dec.i.i = add i64 %2, -1
  store i64 %dec.i.i, ptr %unfilledSessionList_, align 8, !noalias !13
  tail call void @llvm.memset.p0.i64(ptr noundef nonnull align 8 dereferenceable(16) %memptr.offset.i.i, i8 0, i64 16, i1 false), !noalias !13
  ret void
}